; Function Attrs: mustprogress uwtable
define void @_ZN32pxrInternal_v0_24__pxrReserved__13TraceReporter18_ProcessCollectionERKSt10shared_ptrINS_15TraceCollectionEE(ptr nocapture noundef nonnull readonly align 8 dereferenceable(160) %0, ptr nocapture noundef nonnull readonly align 8 dereferenceable(16) %1) unnamed_addr #1 align 2 personality ptr @__gxx_personality_v0 {
  %3 = alloca %"class.pxrInternal_v0_24__pxrReserved__::TfCallContext", align 8
  %4 = alloca %"class.pxrInternal_v0_24__pxrReserved__::TfCallContext", align 8
  %5 = alloca %"class.pxrInternal_v0_24__pxrReserved__::TfRefPtr.17", align 8
  %6 = load ptr, ptr %1, align 8
  %.not = icmp eq ptr %6, null
  br i1 %.not, label %_ZN32pxrInternal_v0_24__pxrReserved__8TfRefPtrINS_14TraceEventTreeEED2Ev.exit, label %7

7:                                                ; preds = %2
  %8 = getelementptr inbounds nuw i8, ptr %0, i64 152
  call void @llvm.lifetime.start.p0(i64 40, ptr nonnull %4)
  %9 = load ptr, ptr %8, align 8
  %.not.i = icmp eq ptr %9, null
  br i1 %.not.i, label %10, label %_ZNK32pxrInternal_v0_24__pxrReserved__8TfRefPtrINS_14TraceEventTreeEEptEv.exit

10:                                               ; preds = %7
  store ptr @.str.17, ptr %4, align 8
  %11 = getelementptr inbounds nuw i8, ptr %4, i64 8
  store ptr @__func__._ZNK32pxrInternal_v0_24__pxrReserved__8TfRefPtrINS_18TraceAggregateNodeEEptEv, ptr %11, align 8
  %12 = getelementptr inbounds nuw i8, ptr %4, i64 16
  store i64 936, ptr %12, align 8
  %13 = getelementptr inbounds nuw i8, ptr %4, i64 24
  store ptr @__PRETTY_FUNCTION__._ZNK32pxrInternal_v0_24__pxrReserved__8TfRefPtrINS_14TraceEventTreeEEptEv, ptr %13, align 8
  %14 = getelementptr inbounds nuw i8, ptr %4, i64 32
  store i8 0, ptr %14, align 8
  call void @_ZN32pxrInternal_v0_24__pxrReserved__40Tf_PostNullSmartPtrDereferenceFatalErrorERKNS_13TfCallContextEPKc(ptr noundef nonnull align 8 dereferenceable(33) %4, ptr noundef nonnull @_ZTSN32pxrInternal_v0_24__pxrReserved__8TfRefPtrINS_14TraceEventTreeEEE) #32
  unreachable

_ZNK32pxrInternal_v0_24__pxrReserved__8TfRefPtrINS_14TraceEventTreeEEptEv.exit: ; preds = %7
  call void @llvm.lifetime.end.p0(i64 40, ptr nonnull %4)
  call void @_ZN32pxrInternal_v0_24__pxrReserved__14TraceEventTree3AddERKNS_15TraceCollectionE(ptr dead_on_unwind nonnull writable sret(%"class.pxrInternal_v0_24__pxrReserved__::TfRefPtr.17") align 8 %5, ptr noundef nonnull align 8 dereferenceable(144) %9, ptr noundef nonnull align 8 dereferenceable(48) %6)
  %15 = getelementptr inbounds nuw i8, ptr %0, i64 144
  call void @llvm.lifetime.start.p0(i64 40, ptr nonnull %3)
  %16 = load ptr, ptr %15, align 8
  %.not.i5 = icmp eq ptr %16, null
  br i1 %.not.i5, label %17, label %22

17:                                               ; preds = %_ZNK32pxrInternal_v0_24__pxrReserved__8TfRefPtrINS_14TraceEventTreeEEptEv.exit
  store ptr @.str.17, ptr %3, align 8
  %18 = getelementptr inbounds nuw i8, ptr %3, i64 8
  store ptr @__func__._ZNK32pxrInternal_v0_24__pxrReserved__8TfRefPtrINS_18TraceAggregateNodeEEptEv, ptr %18, align 8
  %19 = getelementptr inbounds nuw i8, ptr %3, i64 16
  store i64 936, ptr %19, align 8
  %20 = getelementptr inbounds nuw i8, ptr %3, i64 24
  store ptr @__PRETTY_FUNCTION__._ZNK32pxrInternal_v0_24__pxrReserved__8TfRefPtrINS_18TraceAggregateTreeEEptEv, ptr %20, align 8
  %21 = getelementptr inbounds nuw i8, ptr %3, i64 32
  store i8 0, ptr %21, align 8
  invoke void @_ZN32pxrInternal_v0_24__pxrReserved__40Tf_PostNullSmartPtrDereferenceFatalErrorERKNS_13TfCallContextEPKc(ptr noundef nonnull align 8 dereferenceable(33) %3, ptr noundef nonnull @_ZTSN32pxrInternal_v0_24__pxrReserved__8TfRefPtrINS_18TraceAggregateTreeEEE) #32
          to label %.noexc unwind label %49

.noexc:                                           ; preds = %17
  unreachable

22:                                               ; preds = %_ZNK32pxrInternal_v0_24__pxrReserved__8TfRefPtrINS_14TraceEventTreeEEptEv.exit
  call void @llvm.lifetime.end.p0(i64 40, ptr nonnull %3)
  %23 = load ptr, ptr %1, align 8
  invoke void @_ZN32pxrInternal_v0_24__pxrReserved__18TraceAggregateTree6AppendERKNS_8TfRefPtrINS_14TraceEventTreeEEERKNS_15TraceCollectionE(ptr noundef nonnull align 8 dereferenceable(196) %16, ptr noundef nonnull align 8 dereferenceable(8) %5, ptr noundef nonnull align 8 dereferenceable(48) %23)
          to label %24 unwind label %49

24:                                               ; preds = %22
  %25 = load ptr, ptr %5, align 8
  %.not.i.i.i = icmp eq ptr %25, null
  br i1 %.not.i.i.i, label %_ZN32pxrInternal_v0_24__pxrReserved__8TfRefPtrINS_14TraceEventTreeEED2Ev.exit, label %26

26:                                               ; preds = %24
  %27 = getelementptr inbounds nuw i8, ptr %25, i64 8
  %28 = load atomic i32, ptr %27 monotonic, align 4
  %29 = icmp slt i32 %28, 0
  br i1 %29, label %30, label %_ZN32pxrInternal_v0_24__pxrReserved__30Tf_RefPtr_UniqueChangedCounter9RemoveRefEPKNS_9TfRefBaseE.exit.i.i

30:                                               ; preds = %26
  %.not68.i.i.i = icmp eq i32 %28, -2
  br i1 %.not68.i.i.i, label %38, label %31

31:                                               ; preds = %30
  %32 = add nsw i32 %28, 1
  %33 = cmpxchg weak ptr %27, i32 %28, i32 %32 release monotonic, align 4
  %34 = extractvalue { i32, i1 } %33, 1
  %35 = extractvalue { i32, i1 } %33, 0
  br i1 %34, label %36, label %38

36:                                               ; preds = %31
  %37 = icmp eq i32 %28, -1
  br i1 %37, label %42, label %_ZN32pxrInternal_v0_24__pxrReserved__8TfRefPtrINS_14TraceEventTreeEED2Ev.exit

38:                                               ; preds = %31, %30
  %.067.i.i.i = phi i32 [ %35, %31 ], [ -2, %30 ]
  %39 = invoke noundef zeroext i1 @_ZN32pxrInternal_v0_24__pxrReserved__30Tf_RefPtr_UniqueChangedCounter21_RemoveRefMaybeLockedEPKNS_9TfRefBaseEi(ptr noundef nonnull %25, i32 noundef %.067.i.i.i)
          to label %.noexc.i unwind label %46

.noexc.i:                                         ; preds = %38
  br i1 %39, label %42, label %_ZN32pxrInternal_v0_24__pxrReserved__8TfRefPtrINS_14TraceEventTreeEED2Ev.exit

_ZN32pxrInternal_v0_24__pxrReserved__30Tf_RefPtr_UniqueChangedCounter9RemoveRefEPKNS_9TfRefBaseE.exit.i.i: ; preds = %26
  %40 = atomicrmw sub ptr %27, i32 1 release, align 4
  %41 = icmp eq i32 %40, 1
  br i1 %41, label %42, label %_ZN32pxrInternal_v0_24__pxrReserved__8TfRefPtrINS_14TraceEventTreeEED2Ev.exit

42:                                               ; preds = %_ZN32pxrInternal_v0_24__pxrReserved__30Tf_RefPtr_UniqueChangedCounter9RemoveRefEPKNS_9TfRefBaseE.exit.i.i, %.noexc.i, %36
  %43 = load ptr, ptr %25, align 8
  %44 = getelementptr inbounds i8, ptr %43, i64 8
  %45 = load ptr, ptr %44, align 8
  call void %45(ptr noundef nonnull align 8 dereferenceable(12) %25) #30
  br label %_ZN32pxrInternal_v0_24__pxrReserved__8TfRefPtrINS_14TraceEventTreeEED2Ev.exit

46:                                               ; preds = %38
  %47 = landingpad { ptr, i32 }
          catch ptr null
  %48 = extractvalue { ptr, i32 } %47, 0
  call void @__clang_call_terminate(ptr %48) #31
  unreachable

49:                                               ; preds = %17, %22
  %50 = landingpad { ptr, i32 }
          cleanup
  call void @_ZN32pxrInternal_v0_24__pxrReserved__8TfRefPtrINS_14TraceEventTreeEED2Ev(ptr noundef nonnull align 8 dereferenceable(8) %5) #30
  resume { ptr, i32 } %50

_ZN32pxrInternal_v0_24__pxrReserved__8TfRefPtrINS_14TraceEventTreeEED2Ev.exit: ; preds = %42, %_ZN32pxrInternal_v0_24__pxrReserved__30Tf_RefPtr_UniqueChangedCounter9RemoveRefEPKNS_9TfRefBaseE.exit.i.i, %.noexc.i, %36, %24, %2
  ret void
}